Certificate:
    Data:
        Version: 3 (0x2)
        Serial Number: 2 (0x2)
        Signature Algorithm: sha256WithRSAEncryption
        Issuer: C=ES, ST=Murcia, O=TeamJojos, CN=CA TeamJojos
        Validity
            Not Before: Apr 27 16:29:36 2020 GMT
            Not After : Apr 27 16:29:36 2021 GMT
        Subject: C=ES, ST=Murcia, O=TeamJojos, CN=Android
        Subject Public Key Info:
            Public Key Algorithm: rsaEncryption
                RSA Public-Key: (1024 bit)
                Modulus:
                    00:a8:1a:6f:cd:ee:8c:31:21:86:62:9f:e9:76:8f:
                    35:7a:b1:04:3b:45:f7:77:4f:ad:25:3a:68:f5:bc:
                    d1:14:ed:31:f8:94:b6:c9:86:59:88:73:ce:8b:0a:
                    16:cb:d3:d9:dd:c2:f7:93:e1:7c:ac:fc:f0:c4:88:
                    86:0e:0a:fd:96:f9:e0:04:93:78:01:81:36:25:54:
                    ad:f6:d5:c3:5d:45:29:b5:a5:3e:f7:93:91:e6:58:
                    8f:f0:3a:04:a5:e7:ba:8a:44:46:c4:f9:ff:6c:50:
                    63:4a:4b:77:e1:34:df:37:bc:c9:f9:ee:57:32:d2:
                    75:27:70:be:ea:df:72:40:31
                Exponent: 65537 (0x10001)
        X509v3 extensions:
            X509v3 Basic Constraints: 
                CA:FALSE
            Netscape Comment: 
                OpenSSL Generated Certificate
            X509v3 Subject Key Identifier: 
                20:61:AC:7C:B0:6F:51:07:D5:8E:5C:75:A9:F9:FB:FB:B8:05:4E:92
            X509v3 Authority Key Identifier: 
                keyid:51:88:04:F0:31:1D:9D:AB:3F:A0:96:15:94:3F:13:E9:C3:7B:3F:D9

    Signature Algorithm: sha256WithRSAEncryption
         ca:a6:9b:2b:40:5e:9d:05:17:ea:a2:02:bf:54:2d:19:d0:85:
         14:03:17:13:44:b3:7d:e8:06:80:b4:f5:75:14:60:56:c8:4e:
         db:27:65:82:a7:06:ed:b0:46:a3:74:07:81:fb:58:18:d8:d7:
         13:54:e5:6a:59:ab:44:33:0b:0f:29:38:8f:fb:04:3c:32:21:
         6c:9e:a5:49:f0:b6:18:7e:44:9e:6e:3c:b8:3e:ec:17:35:e1:
         27:58:c8:88:96:85:76:56:a3:a5:59:c4:78:4f:f2:d0:37:4f:
         ae:a6:f0:7f:f4:74:36:c9:2a:ca:21:5c:86:f2:e1:09:48:ee:
         95:20:cf:7d:1f:f3:f5:51:09:b1:f7:71:a8:b3:9d:d9:e6:ad:
         e8:8a:f2:ee:5f:59:06:00:f5:4a:4d:91:20:c0:fe:b7:96:55:
         01:fb:54:bc:1a:02:19:4e:12:46:f2:5b:a9:58:45:d2:f9:6f:
         6e:29:31:c9:76:8b:90:49:07:44:9b:08:cb:b2:fd:26:4c:57:
         f4:5d:92:c3:b9:b1:58:a3:d4:bc:c6:5d:a1:b4:84:cc:5f:71:
         3c:6a:ef:5f:7d:7c:e9:81:d9:f2:45:39:84:0e:ee:16:1c:e4:
         cc:d3:76:a2:2e:72:af:ed:05:00:88:ba:81:0e:d5:73:41:3c:
         59:3f:d8:f9
-----BEGIN CERTIFICATE-----
MIIC/zCCAeegAwIBAgIBAjANBgkqhkiG9w0BAQsFADBJMQswCQYDVQQGEwJFUzEP
MA0GA1UECAwGTXVyY2lhMRIwEAYDVQQKDAlUZWFtSm9qb3MxFTATBgNVBAMMDENB
IFRlYW1Kb2pvczAeFw0yMDA0MjcxNjI5MzZaFw0yMTA0MjcxNjI5MzZaMEQxCzAJ
BgNVBAYTAkVTMQ8wDQYDVQQIDAZNdXJjaWExEjAQBgNVBAoMCVRlYW1Kb2pvczEQ
MA4GA1UEAwwHQW5kcm9pZDCBnzANBgkqhkiG9w0BAQEFAAOBjQAwgYkCgYEAqBpv
ze6MMSGGYp/pdo81erEEO0X3d0+tJTpo9bzRFO0x+JS2yYZZiHPOiwoWy9PZ3cL3
k+F8rPzwxIiGDgr9lvngBJN4AYE2JVSt9tXDXUUptaU+95OR5liP8DoEpee6ikRG
xPn/bFBjSkt34TTfN7zJ+e5XMtJ1J3C+6t9yQDECAwEAAaN7MHkwCQYDVR0TBAIw
ADAsBglghkgBhvhCAQ0EHxYdT3BlblNTTCBHZW5lcmF0ZWQgQ2VydGlmaWNhdGUw
HQYDVR0OBBYEFCBhrHywb1EH1Y5cdan5+/u4BU6SMB8GA1UdIwQYMBaAFFGIBPAx
HZ2rP6CWFZQ/E+nDez/ZMA0GCSqGSIb3DQEBCwUAA4IBAQDKppsrQF6dBRfqogK/
VC0Z0IUUAxcTRLN96AaAtPV1FGBWyE7bJ2WCpwbtsEajdAeB+1gY2NcTVOVqWatE
MwsPKTiP+wQ8MiFsnqVJ8LYYfkSebjy4PuwXNeEnWMiIloV2VqOlWcR4T/LQN0+u
pvB/9HQ2ySrKIVyG8uEJSO6VIM99H/P1UQmx93Gos53Z5q3oivLuX1kGAPVKTZEg
wP63llUB+1S8GgIZThJG8lupWEXS+W9uKTHJdouQSQdEmwjLsv0mTFf0XZLDubFY
o9S8xl2htITMX3E8au9ffXzpgdnyRTmEDu4WHOTM03aiLnKv7QUAiLqBDtVzQTxZ
P9j5
-----END CERTIFICATE-----
