Certificate:
    Data:
        Version: 3 (0x2)
        Serial Number: 2 (0x2)
        Signature Algorithm: sha256WithRSAEncryption
        Issuer: C=ES, ST=Murcia, O=TeamJojos, CN=CA TeamJojos
        Validity
            Not Before: Apr 27 17:12:10 2020 GMT
            Not After : Apr 27 17:12:10 2021 GMT
        Subject: C=ES, ST=Murcia, O=TeamJojos, CN=192.168.0.34
        Subject Public Key Info:
            Public Key Algorithm: rsaEncryption
                RSA Public-Key: (1024 bit)
                Modulus:
                    00:c4:8a:f5:fd:61:97:a6:24:33:de:25:3a:e2:ea:
                    8e:c4:ae:88:0b:cd:d7:01:99:da:9a:fa:44:c5:5a:
                    4b:9e:ca:e6:4f:77:da:7b:4d:08:59:82:b4:bf:04:
                    09:24:6e:b9:e7:fd:08:a6:2a:af:5e:52:cf:da:92:
                    bb:ff:5b:f5:5b:36:57:8b:40:7e:31:b3:0e:67:27:
                    39:30:dd:ee:cb:84:69:ad:84:ac:87:05:ad:ed:a9:
                    42:97:51:7c:03:91:88:31:07:e2:34:f9:a4:95:12:
                    16:e4:39:0a:2c:e3:93:14:48:10:e9:fd:64:c1:46:
                    37:d6:62:2c:4b:ed:7e:9c:ed
                Exponent: 65537 (0x10001)
        X509v3 extensions:
            X509v3 Basic Constraints: 
                CA:FALSE
            Netscape Comment: 
                OpenSSL Generated Certificate
            X509v3 Subject Key Identifier: 
                3F:BA:5F:D8:1A:68:DE:91:36:35:D3:37:A7:BB:AC:98:44:E9:4A:0E
            X509v3 Authority Key Identifier: 
                keyid:51:88:04:F0:31:1D:9D:AB:3F:A0:96:15:94:3F:13:E9:C3:7B:3F:D9

    Signature Algorithm: sha256WithRSAEncryption
         38:fa:3f:1f:50:fa:f5:ef:f9:ec:5c:f3:d3:02:08:e6:54:88:
         c7:7b:16:fe:45:12:9b:30:27:96:8e:e4:aa:f2:b9:12:cc:92:
         ff:7a:d2:3b:61:5f:0b:29:a5:53:c0:7c:bd:26:4a:d9:2f:61:
         d9:87:54:22:09:93:26:9e:07:88:d0:e6:fb:71:e6:f6:39:2c:
         d3:93:cb:a4:bc:de:65:66:b1:81:b9:63:de:ff:46:c2:e3:8e:
         33:8b:4c:e6:bf:e3:dd:ef:8b:f3:25:39:16:10:87:62:da:52:
         58:be:5b:9e:99:5d:99:4b:e0:af:1d:96:68:72:67:5c:0d:bb:
         1e:b3:ae:5b:d1:ae:89:f6:eb:88:dc:e8:7e:b8:f3:d4:f3:4a:
         75:45:98:c5:53:89:6d:41:e7:50:47:93:6c:87:5c:f2:7d:e1:
         a6:82:31:c7:88:8f:9a:9d:50:9d:c3:08:a0:77:29:63:b3:d1:
         78:d6:f4:69:a9:12:0a:de:91:38:24:49:a0:a4:19:31:e8:5f:
         8c:55:96:37:26:c5:6f:62:b3:a7:70:b5:29:a5:55:4f:36:af:
         6f:b5:0f:5e:c7:ae:5c:04:17:66:fa:45:31:65:22:93:dd:67:
         79:ad:11:21:26:cb:21:a3:8b:74:3d:f6:9b:ee:4b:b1:5a:e8:
         f5:d3:1c:3d
-----BEGIN CERTIFICATE-----
MIIDBDCCAeygAwIBAgIBAjANBgkqhkiG9w0BAQsFADBJMQswCQYDVQQGEwJFUzEP
MA0GA1UECAwGTXVyY2lhMRIwEAYDVQQKDAlUZWFtSm9qb3MxFTATBgNVBAMMDENB
IFRlYW1Kb2pvczAeFw0yMDA0MjcxNzEyMTBaFw0yMTA0MjcxNzEyMTBaMEkxCzAJ
BgNVBAYTAkVTMQ8wDQYDVQQIDAZNdXJjaWExEjAQBgNVBAoMCVRlYW1Kb2pvczEV
MBMGA1UEAwwMMTkyLjE2OC4wLjM0MIGfMA0GCSqGSIb3DQEBAQUAA4GNADCBiQKB
gQDEivX9YZemJDPeJTri6o7ErogLzdcBmdqa+kTFWkueyuZPd9p7TQhZgrS/BAkk
brnn/QimKq9eUs/akrv/W/VbNleLQH4xsw5nJzkw3e7LhGmthKyHBa3tqUKXUXwD
kYgxB+I0+aSVEhbkOQos45MUSBDp/WTBRjfWYixL7X6c7QIDAQABo3sweTAJBgNV
HRMEAjAAMCwGCWCGSAGG+EIBDQQfFh1PcGVuU1NMIEdlbmVyYXRlZCBDZXJ0aWZp
Y2F0ZTAdBgNVHQ4EFgQUP7pf2Bpo3pE2NdM3p7usmETpSg4wHwYDVR0jBBgwFoAU
UYgE8DEdnas/oJYVlD8T6cN7P9kwDQYJKoZIhvcNAQELBQADggEBADj6Px9Q+vXv
+exc89MCCOZUiMd7Fv5FEpswJ5aO5KryuRLMkv960jthXwsppVPAfL0mStkvYdmH
VCIJkyaeB4jQ5vtx5vY5LNOTy6S83mVmsYG5Y97/RsLjjjOLTOa/493vi/MlORYQ
h2LaUli+W56ZXZlL4K8dlmhyZ1wNux6zrlvRron264jc6H6489TzSnVFmMVTiW1B
51BHk2yHXPJ94aaCMceIj5qdUJ3DCKB3KWOz0XjW9GmpEgrekTgkSaCkGTHoX4xV
ljcmxW9is6dwtSmlVU82r2+1D17HrlwEF2b6RTFlIpPdZ3mtESEmyyGji3Q99pvu
S7Fa6PXTHD0=
-----END CERTIFICATE-----
